; Function Attrs: nofree nounwind uwtable
define void @Wlc_NtkPrintNameArray(ptr noundef readonly captures(none) %0) local_unnamed_addr #8 {
  %2 = getelementptr i8, ptr %0, i64 4
  %.val7 = load i32, ptr %2, align 4, !tbaa !46
  %3 = icmp sgt i32 %.val7, 0
  br i1 %3, label %.lr.ph, label %.critedge

.lr.ph:                                           ; preds = %1
  %4 = getelementptr i8, ptr %0, i64 8
  br label %5

5:                                                ; preds = %.lr.ph, %5
  %indvars.iv = phi i64 [ 0, %.lr.ph ], [ %indvars.iv.next, %5 ]
  %.val6 = load ptr, ptr %4, align 8, !tbaa !48
  %6 = getelementptr inbounds nuw ptr, ptr %.val6, i64 %indvars.iv
  %7 = load ptr, ptr %6, align 8, !tbaa !49
  %8 = trunc nuw nsw i64 %indvars.iv to i32
  %9 = tail call i32 (ptr, ...) @printf(ptr noundef nonnull dereferenceable(1) @.str.16, i32 noundef %8, ptr noundef %7)
  %indvars.iv.next = add nuw nsw i64 %indvars.iv, 1
  %.val = load i32, ptr %2, align 4, !tbaa !46
  %10 = sext i32 %.val to i64
  %11 = icmp slt i64 %indvars.iv.next, %10
  br i1 %11, label %5, label %.critedge, !llvm.loop !50

.critedge:                                        ; preds = %5, %1
  ret void
}